target datalayout = "e-m:e-p270:32:32-p271:32:32-p272:64:64-i64:64-i128:128-f80:128-n8:16:32:64-S128"
target triple = "x86_64-pc-linux-gnu"

%struct.SingleChannelElement = type { %struct.IndividualChannelStream, %struct.AACUsacElemData, %struct.TemporalNoiseShaping, [128 x i32], [128 x i32], %union.anon.15, [12 x i8], %union.anon.16, %union.anon.17, %union.anon.18, %union.anon.19, %union.anon.20, %union.anon.21, %union.anon.22 }
%struct.IndividualChannelStream = type { i8, [2 x i32], [2 x i8], i32, i32, [8 x i8], %struct.LongTermPrediction, ptr, i32, i32, i32, i32, i32, i32, [41 x i8], [8 x i8] }
%struct.LongTermPrediction = type { i8, i16, %union.anon.10, [40 x i8] }
%union.anon.10 = type { i32 }
%struct.AACUsacElemData = type { i8, i8, i8, [16 x i8], %struct.anon.11, %struct.anon.12, %struct.anon.13, %struct.AACArithState }
%struct.anon.11 = type { i16, i32 }
%struct.anon.12 = type { i32, i8 }
%struct.anon.13 = type { i8, [8 x [8 x i32]] }
%struct.AACArithState = type { [513 x i8], i32, [4 x i8], i16 }
%struct.TemporalNoiseShaping = type { i32, [8 x i32], [8 x [4 x i32]], [8 x [4 x i32]], [8 x [4 x i32]], %union.anon.14 }
%union.anon.14 = type { [8 x [4 x [20 x i32]]] }
%union.anon.15 = type { [128 x i32] }
%union.anon.16 = type { [1024 x i32] }
%union.anon.17 = type { [1024 x i32] }
%union.anon.18 = type { [1536 x i32] }
%union.anon.19 = type { [2048 x i32] }
%union.anon.20 = type { [3072 x i32] }
%union.anon.21 = type { ptr }
%union.anon.22 = type { ptr }

; Function Attrs: nounwind uwtable
define internal void @dequant_scalefactors_fixed(ptr noundef %0) #3 {
  %2 = alloca ptr, align 8
  %3 = alloca ptr, align 8
  %4 = alloca ptr, align 8
  %5 = alloca ptr, align 8
  %6 = alloca i32, align 4
  %7 = alloca i32, align 4
  %8 = alloca i32, align 4
  %9 = alloca i32, align 4
  store ptr %0, ptr %2, align 8, !tbaa !66
  call void @llvm.lifetime.start.p0(i64 8, ptr %3) #13
  %10 = load ptr, ptr %2, align 8, !tbaa !66
  %11 = getelementptr inbounds nuw %struct.SingleChannelElement, ptr %10, i32 0, i32 0
  store ptr %11, ptr %3, align 8, !tbaa !68
  call void @llvm.lifetime.start.p0(i64 8, ptr %4) #13
  %12 = load ptr, ptr %2, align 8, !tbaa !66
  %13 = getelementptr inbounds nuw %struct.SingleChannelElement, ptr %12, i32 0, i32 4
  %14 = getelementptr inbounds [128 x i32], ptr %13, i64 0, i64 0
  store ptr %14, ptr %4, align 8, !tbaa !70
  call void @llvm.lifetime.start.p0(i64 8, ptr %5) #13
  %15 = load ptr, ptr %2, align 8, !tbaa !66
  %16 = getelementptr inbounds nuw %struct.SingleChannelElement, ptr %15, i32 0, i32 5
  %17 = getelementptr inbounds [128 x i32], ptr %16, i64 0, i64 0
  store ptr %17, ptr %5, align 8, !tbaa !70
  call void @llvm.lifetime.start.p0(i64 4, ptr %6) #13
  store i32 0, ptr %6, align 4, !tbaa !71
  call void @llvm.lifetime.start.p0(i64 4, ptr %7) #13
  store i32 0, ptr %7, align 4, !tbaa !71
  br label %18

18:                                               ; preds = %96, %1
  %19 = load i32, ptr %7, align 4, !tbaa !71
  %20 = load ptr, ptr %3, align 8, !tbaa !68
  %21 = getelementptr inbounds nuw %struct.IndividualChannelStream, ptr %20, i32 0, i32 3
  %22 = load i32, ptr %21, align 8, !tbaa !72
  %23 = icmp slt i32 %19, %22
  br i1 %23, label %25, label %24

24:                                               ; preds = %18
  store i32 2, ptr %8, align 4
  call void @llvm.lifetime.end.p0(i64 4, ptr %7) #13
  br label %99

25:                                               ; preds = %18
  call void @llvm.lifetime.start.p0(i64 4, ptr %9) #13
  store i32 0, ptr %9, align 4, !tbaa !71
  br label %26

26:                                               ; preds = %90, %25
  %27 = load i32, ptr %9, align 4, !tbaa !71
  %28 = load ptr, ptr %3, align 8, !tbaa !68
  %29 = getelementptr inbounds nuw %struct.IndividualChannelStream, ptr %28, i32 0, i32 0
  %30 = load i8, ptr %29, align 8, !tbaa !76
  %31 = zext i8 %30 to i32
  %32 = icmp slt i32 %27, %31
  br i1 %32, label %34, label %33

33:                                               ; preds = %26
  store i32 5, ptr %8, align 4
  call void @llvm.lifetime.end.p0(i64 4, ptr %9) #13
  br label %95

34:                                               ; preds = %26
  %35 = load ptr, ptr %2, align 8, !tbaa !66
  %36 = getelementptr inbounds nuw %struct.SingleChannelElement, ptr %35, i32 0, i32 3
  %37 = load i32, ptr %7, align 4, !tbaa !71
  %38 = load ptr, ptr %3, align 8, !tbaa !68
  %39 = getelementptr inbounds nuw %struct.IndividualChannelStream, ptr %38, i32 0, i32 0
  %40 = load i8, ptr %39, align 8, !tbaa !76
  %41 = zext i8 %40 to i32
  %42 = mul nsw i32 %37, %41
  %43 = load i32, ptr %9, align 4, !tbaa !71
  %44 = add nsw i32 %42, %43
  %45 = sext i32 %44 to i64
  %46 = getelementptr inbounds [128 x i32], ptr %36, i64 0, i64 %45
  %47 = load i32, ptr %46, align 4, !tbaa !71
  switch i32 %47, label %77 [
    i32 0, label %48
    i32 15, label %53
    i32 14, label %53
    i32 13, label %65
  ]

48:                                               ; preds = %34
  %49 = load ptr, ptr %5, align 8, !tbaa !70
  %50 = load i32, ptr %6, align 4, !tbaa !71
  %51 = sext i32 %50 to i64
  %52 = getelementptr inbounds i32, ptr %49, i64 %51
  store i32 0, ptr %52, align 4, !tbaa !71
  br label %89

53:                                               ; preds = %34, %34
  %54 = load ptr, ptr %4, align 8, !tbaa !70
  %55 = load i32, ptr %6, align 4, !tbaa !71
  %56 = sext i32 %55 to i64
  %57 = getelementptr inbounds i32, ptr %54, i64 %56
  %58 = load i32, ptr %57, align 4, !tbaa !71
  %59 = add nsw i32 %58, 100
  %60 = sub nsw i32 100, %59
  %61 = load ptr, ptr %5, align 8, !tbaa !70
  %62 = load i32, ptr %6, align 4, !tbaa !71
  %63 = sext i32 %62 to i64
  %64 = getelementptr inbounds i32, ptr %61, i64 %63
  store i32 %60, ptr %64, align 4, !tbaa !71
  br label %89

65:                                               ; preds = %34
  %66 = load ptr, ptr %4, align 8, !tbaa !70
  %67 = load i32, ptr %6, align 4, !tbaa !71
  %68 = sext i32 %67 to i64
  %69 = getelementptr inbounds i32, ptr %66, i64 %68
  %70 = load i32, ptr %69, align 4, !tbaa !71
  %71 = add nsw i32 100, %70
  %72 = sub nsw i32 0, %71
  %73 = load ptr, ptr %5, align 8, !tbaa !70
  %74 = load i32, ptr %6, align 4, !tbaa !71
  %75 = sext i32 %74 to i64
  %76 = getelementptr inbounds i32, ptr %73, i64 %75
  store i32 %72, ptr %76, align 4, !tbaa !71
  br label %89

77:                                               ; preds = %34
  %78 = load ptr, ptr %4, align 8, !tbaa !70
  %79 = load i32, ptr %6, align 4, !tbaa !71
  %80 = sext i32 %79 to i64
  %81 = getelementptr inbounds i32, ptr %78, i64 %80
  %82 = load i32, ptr %81, align 4, !tbaa !71
  %83 = sub nsw i32 0, %82
  %84 = sub nsw i32 %83, 100
  %85 = load ptr, ptr %5, align 8, !tbaa !70
  %86 = load i32, ptr %6, align 4, !tbaa !71
  %87 = sext i32 %86 to i64
  %88 = getelementptr inbounds i32, ptr %85, i64 %87
  store i32 %84, ptr %88, align 4, !tbaa !71
  br label %89

89:                                               ; preds = %77, %65, %53, %48
  br label %90

90:                                               ; preds = %89
  %91 = load i32, ptr %9, align 4, !tbaa !71
  %92 = add nsw i32 %91, 1
  store i32 %92, ptr %9, align 4, !tbaa !71
  %93 = load i32, ptr %6, align 4, !tbaa !71
  %94 = add nsw i32 %93, 1
  store i32 %94, ptr %6, align 4, !tbaa !71
  br label %26, !llvm.loop !77

95:                                               ; preds = %33
  br label %96

96:                                               ; preds = %95
  %97 = load i32, ptr %7, align 4, !tbaa !71
  %98 = add nsw i32 %97, 1
  store i32 %98, ptr %7, align 4, !tbaa !71
  br label %18, !llvm.loop !79

99:                                               ; preds = %24
  call void @llvm.lifetime.end.p0(i64 4, ptr %6) #13
  call void @llvm.lifetime.end.p0(i64 8, ptr %5) #13
  call void @llvm.lifetime.end.p0(i64 8, ptr %4) #13
  call void @llvm.lifetime.end.p0(i64 8, ptr %3) #13
  ret void
}