; Function Attrs: nofree norecurse nosync nounwind memory(argmem: readwrite) uwtable
define internal void @dequant_scalefactors_fixed(ptr noundef captures(none) %0) #4 {
  %2 = getelementptr inbounds nuw i8, ptr %0, i64 4484
  %3 = getelementptr inbounds nuw i8, ptr %0, i64 4996
  %4 = getelementptr inbounds nuw i8, ptr %0, i64 16
  %5 = load i32, ptr %4, align 8, !tbaa !59
  %6 = icmp sgt i32 %5, 0
  br i1 %6, label %.preheader.lr.ph, label %._crit_edge34

.preheader.lr.ph:                                 ; preds = %1
  %7 = load i8, ptr %0, align 8, !tbaa !63
  %.not = icmp eq i8 %7, 0
  %8 = getelementptr inbounds nuw i8, ptr %0, i64 3972
  br i1 %.not, label %._crit_edge34, label %.preheader.us.preheader

.preheader.us.preheader:                          ; preds = %.preheader.lr.ph
  %9 = zext i8 %7 to i64
  br label %.preheader.us

.preheader.us:                                    ; preds = %.preheader.us.preheader, %._crit_edge.us
  %indvars.iv41 = phi i64 [ 0, %.preheader.us.preheader ], [ %indvars.iv.next42, %._crit_edge.us ]
  %.02832.us = phi i64 [ 0, %.preheader.us.preheader ], [ %indvars.iv.next37, %._crit_edge.us ]
  %10 = mul nuw nsw i64 %indvars.iv41, %9
  %sext = shl i64 %.02832.us, 32
  %11 = ashr exact i64 %sext, 32
  br label %12

12:                                               ; preds = %.preheader.us, %20
  %indvars.iv36 = phi i64 [ %11, %.preheader.us ], [ %indvars.iv.next37, %20 ]
  %indvars.iv = phi i64 [ 0, %.preheader.us ], [ %indvars.iv.next, %20 ]
  %13 = add nuw nsw i64 %10, %indvars.iv
  %14 = getelementptr inbounds nuw [128 x i32], ptr %8, i64 0, i64 %13
  %15 = load i32, ptr %14, align 4, !tbaa !64
  switch i32 %15, label %16 [
    i32 0, label %20
    i32 15, label %.sink.split
    i32 14, label %.sink.split
  ]

16:                                               ; preds = %12
  br label %.sink.split

.sink.split:                                      ; preds = %12, %12, %16
  %.sink45 = phi i32 [ -100, %16 ], [ 0, %12 ], [ 0, %12 ]
  %17 = getelementptr inbounds i32, ptr %2, i64 %indvars.iv36
  %18 = load i32, ptr %17, align 4, !tbaa !64
  %19 = sub i32 %.sink45, %18
  br label %20

20:                                               ; preds = %.sink.split, %12
  %.sink = phi i32 [ %15, %12 ], [ %19, %.sink.split ]
  %21 = getelementptr inbounds i32, ptr %3, i64 %indvars.iv36
  store i32 %.sink, ptr %21, align 4, !tbaa !64
  %indvars.iv.next = add nuw nsw i64 %indvars.iv, 1
  %indvars.iv.next37 = add nsw i64 %indvars.iv36, 1
  %exitcond.not = icmp eq i64 %indvars.iv.next, %9
  br i1 %exitcond.not, label %._crit_edge.us, label %12, !llvm.loop !65

._crit_edge.us:                                   ; preds = %20
  %indvars.iv.next42 = add nuw nsw i64 %indvars.iv41, 1
  %22 = load i32, ptr %4, align 8, !tbaa !59
  %23 = sext i32 %22 to i64
  %24 = icmp slt i64 %indvars.iv.next42, %23
  br i1 %24, label %.preheader.us, label %._crit_edge34, !llvm.loop !67

._crit_edge34:                                    ; preds = %._crit_edge.us, %.preheader.lr.ph, %1
  ret void
}